; Function Attrs: nounwind sspstrong uwtable
define internal range(i64 1, -7) i64 @dir_seek(i64 noundef returned %0, i64 noundef %1) #0 {
  %3 = and i64 %1, 1
  %.not.i = icmp eq i64 %3, 0
  br i1 %.not.i, label %6, label %4

4:                                                ; preds = %2
  %5 = ashr i64 %1, 1
  br label %rb_num2long_inline.exit

6:                                                ; preds = %2
  %7 = tail call i64 @rb_num2long(i64 noundef %1) #22
  br label %rb_num2long_inline.exit

rb_num2long_inline.exit:                          ; preds = %4, %6
  %.0.i = phi i64 [ %5, %4 ], [ %7, %6 ]
  %8 = icmp eq i64 %0, 0
  %9 = and i64 %0, 7
  %10 = icmp ne i64 %9, 0
  %11 = or i1 %8, %10
  br i1 %11, label %RB_OBJ_FROZEN.exit.thread.i.i.i, label %RB_FL_ABLE.exit.i.i.i.i, !prof !60

RB_FL_ABLE.exit.i.i.i.i:                          ; preds = %rb_num2long_inline.exit
  %12 = inttoptr i64 %0 to ptr
  %13 = load i64, ptr %12, align 8, !tbaa !61
  %14 = and i64 %13, 31
  %.not.i.i.i.i = icmp eq i64 %14, 27
  %15 = and i64 %13, 2048
  %16 = icmp ne i64 %15, 0
  %or.cond.i.i.i = or i1 %.not.i.i.i.i, %16
  br i1 %or.cond.i.i.i, label %RB_OBJ_FROZEN.exit.thread.i.i.i, label %rbimpl_RB_TYPE_P_fastpath.exit.i.i.i, !prof !62

RB_OBJ_FROZEN.exit.thread.i.i.i:                  ; preds = %RB_FL_ABLE.exit.i.i.i.i, %rb_num2long_inline.exit
  tail call void @rb_error_frozen_object(i64 noundef %0) #26
  unreachable

rbimpl_RB_TYPE_P_fastpath.exit.i.i.i:             ; preds = %RB_FL_ABLE.exit.i.i.i.i
  %17 = icmp ne i64 %14, 5
  %18 = and i64 %13, 49152
  %.not.i.i.i = icmp eq i64 %18, 0
  %or.cond8.i.i.i = or i1 %17, %.not.i.i.i
  br i1 %or.cond8.i.i.i, label %dir_get.exit.i, label %19, !prof !63

19:                                               ; preds = %rbimpl_RB_TYPE_P_fastpath.exit.i.i.i
  tail call void @rb_str_modify(i64 noundef %0) #22
  br label %dir_get.exit.i

dir_get.exit.i:                                   ; preds = %19, %rbimpl_RB_TYPE_P_fastpath.exit.i.i.i
  %20 = tail call ptr @rb_check_typeddata(i64 noundef %0, ptr noundef nonnull @dir_data_type) #22
  %21 = load ptr, ptr %20, align 8, !tbaa !54
  %.not.i4 = icmp eq ptr %21, null
  br i1 %.not.i4, label %22, label %dir_check.exit

22:                                               ; preds = %dir_get.exit.i
  tail call fastcc void @dir_closed() #27
  unreachable

dir_check.exit:                                   ; preds = %dir_get.exit.i
  tail call void @seekdir(ptr noundef nonnull %21, i64 noundef %.0.i) #22
  ret i64 %0
}